target datalayout = "e-m:e-p270:32:32-p271:32:32-p272:64:64-i64:64-i128:128-f80:128-n8:16:32:64-S128"
target triple = "x86_64-pc-linux-gnu"

%"struct.memarena::arena_chunk" = type { ptr, i64, i64 }
%class.memarena = type { %"struct.memarena::arena_chunk", ptr, i32, i64, i64 }

; Function Attrs: mustprogress nounwind uwtable
define linkonce_odr void @_ZN8memarena11arena_chunkC2Ev(ptr noundef nonnull align 8 dereferenceable(24) %0) unnamed_addr #2 comdat align 2 {
  %2 = alloca ptr, align 8
  store ptr %0, ptr %2, align 8, !tbaa !24
  %3 = load ptr, ptr %2, align 8
  %4 = getelementptr inbounds nuw %"struct.memarena::arena_chunk", ptr %3, i32 0, i32 0
  store ptr null, ptr %4, align 8, !tbaa !25
  %5 = getelementptr inbounds nuw %"struct.memarena::arena_chunk", ptr %3, i32 0, i32 1
  store i64 0, ptr %5, align 8, !tbaa !26
  %6 = getelementptr inbounds nuw %"struct.memarena::arena_chunk", ptr %3, i32 0, i32 2
  store i64 0, ptr %6, align 8, !tbaa !27
  ret void
}

; Function Attrs: mustprogress uwtable
define void @_ZN8memarena11move_memoryEPS_(ptr noundef nonnull align 8 dereferenceable(56) %0, ptr noundef %1) #0 align 2 {
  %3 = alloca ptr, align 8
  %4 = alloca ptr, align 8
  %5 = alloca i32, align 4
  %6 = alloca %"struct.memarena::arena_chunk", align 8
  store ptr %0, ptr %3, align 8, !tbaa !4
  store ptr %1, ptr %4, align 8, !tbaa !4
  %7 = load ptr, ptr %3, align 8
  %8 = load ptr, ptr %4, align 8, !tbaa !4
  %9 = getelementptr inbounds nuw %class.memarena, ptr %8, i32 0, i32 1
  %10 = load ptr, ptr %9, align 8, !tbaa !14
  %11 = load ptr, ptr %4, align 8, !tbaa !4
  %12 = getelementptr inbounds nuw %class.memarena, ptr %11, i32 0, i32 2
  %13 = load i32, ptr %12, align 8, !tbaa !21
  %14 = getelementptr inbounds nuw %class.memarena, ptr %7, i32 0, i32 2
  %15 = load i32, ptr %14, align 8, !tbaa !21
  %16 = add nsw i32 %13, %15
  %17 = add nsw i32 %16, 1
  %18 = sext i32 %17 to i64
  %19 = mul i64 %18, 24
  %20 = call noundef ptr @_Z13toku_xreallocPvm(ptr noundef %10, i64 noundef %19)
  %21 = load ptr, ptr %4, align 8, !tbaa !4
  %22 = getelementptr inbounds nuw %class.memarena, ptr %21, i32 0, i32 1
  store ptr %20, ptr %22, align 8, !tbaa !14
  %23 = getelementptr inbounds nuw %class.memarena, ptr %7, i32 0, i32 3
  %24 = load i64, ptr %23, align 8, !tbaa !19
  %25 = getelementptr inbounds nuw %class.memarena, ptr %7, i32 0, i32 0
  %26 = getelementptr inbounds nuw %"struct.memarena::arena_chunk", ptr %25, i32 0, i32 2
  %27 = load i64, ptr %26, align 8, !tbaa !22
  %28 = add i64 %24, %27
  %29 = load ptr, ptr %4, align 8, !tbaa !4
  %30 = getelementptr inbounds nuw %class.memarena, ptr %29, i32 0, i32 3
  %31 = load i64, ptr %30, align 8, !tbaa !19
  %32 = add i64 %31, %28
  store i64 %32, ptr %30, align 8, !tbaa !19
  %33 = getelementptr inbounds nuw %class.memarena, ptr %7, i32 0, i32 4
  %34 = load i64, ptr %33, align 8, !tbaa !20
  %35 = getelementptr inbounds nuw %class.memarena, ptr %7, i32 0, i32 0
  %36 = getelementptr inbounds nuw %"struct.memarena::arena_chunk", ptr %35, i32 0, i32 0
  %37 = load ptr, ptr %36, align 8, !tbaa !23
  %38 = getelementptr inbounds nuw %class.memarena, ptr %7, i32 0, i32 0
  %39 = getelementptr inbounds nuw %"struct.memarena::arena_chunk", ptr %38, i32 0, i32 1
  %40 = load i64, ptr %39, align 8, !tbaa !31
  %41 = call noundef i64 @_Z21toku_memory_footprintPvm(ptr noundef %37, i64 noundef %40)
  %42 = add i64 %34, %41
  %43 = load ptr, ptr %4, align 8, !tbaa !4
  %44 = getelementptr inbounds nuw %class.memarena, ptr %43, i32 0, i32 4
  %45 = load i64, ptr %44, align 8, !tbaa !20
  %46 = add i64 %45, %42
  store i64 %46, ptr %44, align 8, !tbaa !20
  call void @llvm.lifetime.start.p0(i64 4, ptr %5) #6
  store i32 0, ptr %5, align 4, !tbaa !28
  br label %47

47:                                               ; preds = %68, %2
  %48 = load i32, ptr %5, align 4, !tbaa !28
  %49 = getelementptr inbounds nuw %class.memarena, ptr %7, i32 0, i32 2
  %50 = load i32, ptr %49, align 8, !tbaa !21
  %51 = icmp slt i32 %48, %50
  br i1 %51, label %53, label %52

52:                                               ; preds = %47
  call void @llvm.lifetime.end.p0(i64 4, ptr %5) #6
  br label %71

53:                                               ; preds = %47
  %54 = getelementptr inbounds nuw %class.memarena, ptr %7, i32 0, i32 1
  %55 = load ptr, ptr %54, align 8, !tbaa !14
  %56 = load i32, ptr %5, align 4, !tbaa !28
  %57 = sext i32 %56 to i64
  %58 = getelementptr inbounds %"struct.memarena::arena_chunk", ptr %55, i64 %57
  %59 = load ptr, ptr %4, align 8, !tbaa !4
  %60 = getelementptr inbounds nuw %class.memarena, ptr %59, i32 0, i32 1
  %61 = load ptr, ptr %60, align 8, !tbaa !14
  %62 = load ptr, ptr %4, align 8, !tbaa !4
  %63 = getelementptr inbounds nuw %class.memarena, ptr %62, i32 0, i32 2
  %64 = load i32, ptr %63, align 8, !tbaa !21
  %65 = add nsw i32 %64, 1
  store i32 %65, ptr %63, align 8, !tbaa !21
  %66 = sext i32 %64 to i64
  %67 = getelementptr inbounds %"struct.memarena::arena_chunk", ptr %61, i64 %66
  call void @llvm.memcpy.p0.p0.i64(ptr align 8 %67, ptr align 8 %58, i64 24, i1 false), !tbaa.struct !11
  br label %68

68:                                               ; preds = %53
  %69 = load i32, ptr %5, align 4, !tbaa !28
  %70 = add nsw i32 %69, 1
  store i32 %70, ptr %5, align 4, !tbaa !28
  br label %47, !llvm.loop !34

71:                                               ; preds = %52
  %72 = getelementptr inbounds nuw %class.memarena, ptr %7, i32 0, i32 0
  %73 = load ptr, ptr %4, align 8, !tbaa !4
  %74 = getelementptr inbounds nuw %class.memarena, ptr %73, i32 0, i32 1
  %75 = load ptr, ptr %74, align 8, !tbaa !14
  %76 = load ptr, ptr %4, align 8, !tbaa !4
  %77 = getelementptr inbounds nuw %class.memarena, ptr %76, i32 0, i32 2
  %78 = load i32, ptr %77, align 8, !tbaa !21
  %79 = add nsw i32 %78, 1
  store i32 %79, ptr %77, align 8, !tbaa !21
  %80 = sext i32 %78 to i64
  %81 = getelementptr inbounds %"struct.memarena::arena_chunk", ptr %75, i64 %80
  call void @llvm.memcpy.p0.p0.i64(ptr align 8 %81, ptr align 8 %72, i64 24, i1 false), !tbaa.struct !11
  %82 = getelementptr inbounds nuw %class.memarena, ptr %7, i32 0, i32 1
  %83 = load ptr, ptr %82, align 8, !tbaa !14
  call void @_Z9toku_freePv(ptr noundef %83)
  call void @llvm.lifetime.start.p0(i64 24, ptr %6) #6
  call void @_ZN8memarena11arena_chunkC2Ev(ptr noundef nonnull align 8 dereferenceable(24) %6)
  %84 = getelementptr inbounds nuw %class.memarena, ptr %7, i32 0, i32 0
  call void @llvm.memcpy.p0.p0.i64(ptr align 8 %84, ptr align 8 %6, i64 24, i1 false), !tbaa.struct !11
  call void @llvm.lifetime.end.p0(i64 24, ptr %6) #6
  %85 = getelementptr inbounds nuw %class.memarena, ptr %7, i32 0, i32 1
  store ptr null, ptr %85, align 8, !tbaa !14
  %86 = getelementptr inbounds nuw %class.memarena, ptr %7, i32 0, i32 3
  store i64 0, ptr %86, align 8, !tbaa !19
  %87 = getelementptr inbounds nuw %class.memarena, ptr %7, i32 0, i32 4
  store i64 0, ptr %87, align 8, !tbaa !20
  %88 = getelementptr inbounds nuw %class.memarena, ptr %7, i32 0, i32 2
  store i32 0, ptr %88, align 8, !tbaa !21
  ret void
}