; Function Attrs: mustprogress uwtable
define void @_ZN8memarena11move_memoryEPS_(ptr noundef nonnull align 8 captures(none) dereferenceable(56) %0, ptr noundef captures(none) %1) local_unnamed_addr #0 align 2 {
  %3 = getelementptr inbounds nuw i8, ptr %1, i64 24
  %4 = load ptr, ptr %3, align 8, !tbaa !4
  %5 = getelementptr inbounds nuw i8, ptr %1, i64 32
  %6 = load i32, ptr %5, align 8, !tbaa !14
  %7 = getelementptr inbounds nuw i8, ptr %0, i64 32
  %8 = load i32, ptr %7, align 8, !tbaa !14
  %9 = add i32 %6, 1
  %10 = add i32 %9, %8
  %11 = sext i32 %10 to i64
  %12 = mul nsw i64 %11, 24
  %13 = tail call noundef ptr @_Z13toku_xreallocPvm(ptr noundef %4, i64 noundef %12)
  store ptr %13, ptr %3, align 8, !tbaa !4
  %14 = getelementptr inbounds nuw i8, ptr %0, i64 40
  %15 = load i64, ptr %14, align 8, !tbaa !24
  %16 = getelementptr inbounds nuw i8, ptr %0, i64 16
  %17 = load i64, ptr %16, align 8, !tbaa !15
  %18 = add i64 %17, %15
  %19 = getelementptr inbounds nuw i8, ptr %1, i64 40
  %20 = load i64, ptr %19, align 8, !tbaa !24
  %21 = add i64 %18, %20
  store i64 %21, ptr %19, align 8, !tbaa !24
  %22 = getelementptr inbounds nuw i8, ptr %0, i64 48
  %23 = load i64, ptr %22, align 8, !tbaa !25
  %24 = load ptr, ptr %0, align 8, !tbaa !16
  %25 = getelementptr inbounds nuw i8, ptr %0, i64 8
  %26 = load i64, ptr %25, align 8, !tbaa !20
  %27 = tail call noundef i64 @_Z21toku_memory_footprintPvm(ptr noundef %24, i64 noundef %26)
  %28 = add i64 %27, %23
  %29 = getelementptr inbounds nuw i8, ptr %1, i64 48
  %30 = load i64, ptr %29, align 8, !tbaa !25
  %31 = add i64 %28, %30
  store i64 %31, ptr %29, align 8, !tbaa !25
  %32 = load i32, ptr %7, align 8, !tbaa !14
  %33 = icmp sgt i32 %32, 0
  br i1 %33, label %.lr.ph, label %._crit_edge

.lr.ph:                                           ; preds = %2
  %34 = getelementptr inbounds nuw i8, ptr %0, i64 24
  br label %42

._crit_edge:                                      ; preds = %42, %2
  %35 = load ptr, ptr %3, align 8, !tbaa !4
  %36 = load i32, ptr %5, align 8, !tbaa !14
  %37 = add nsw i32 %36, 1
  store i32 %37, ptr %5, align 8, !tbaa !14
  %38 = sext i32 %36 to i64
  %39 = getelementptr inbounds %"struct.memarena::arena_chunk", ptr %35, i64 %38
  tail call void @llvm.memcpy.p0.p0.i64(ptr noundef nonnull align 8 dereferenceable(24) %39, ptr noundef nonnull align 8 dereferenceable(24) %0, i64 24, i1 false), !tbaa.struct !21
  %40 = getelementptr inbounds nuw i8, ptr %0, i64 24
  %41 = load ptr, ptr %40, align 8, !tbaa !4
  tail call void @_Z9toku_freePv(ptr noundef %41)
  tail call void @llvm.memset.p0.i64(ptr noundef nonnull align 8 dereferenceable(24) %0, i8 0, i64 24, i1 false)
  store ptr null, ptr %40, align 8, !tbaa !4
  store i32 0, ptr %7, align 8, !tbaa !14
  tail call void @llvm.memset.p0.i64(ptr noundef nonnull align 8 dereferenceable(16) %14, i8 0, i64 16, i1 false)
  ret void

42:                                               ; preds = %.lr.ph, %42
  %indvars.iv = phi i64 [ 0, %.lr.ph ], [ %indvars.iv.next, %42 ]
  %43 = load ptr, ptr %34, align 8, !tbaa !4
  %44 = getelementptr inbounds nuw %"struct.memarena::arena_chunk", ptr %43, i64 %indvars.iv
  %45 = load ptr, ptr %3, align 8, !tbaa !4
  %46 = load i32, ptr %5, align 8, !tbaa !14
  %47 = add nsw i32 %46, 1
  store i32 %47, ptr %5, align 8, !tbaa !14
  %48 = sext i32 %46 to i64
  %49 = getelementptr inbounds %"struct.memarena::arena_chunk", ptr %45, i64 %48
  tail call void @llvm.memcpy.p0.p0.i64(ptr noundef nonnull align 8 dereferenceable(24) %49, ptr noundef nonnull align 8 dereferenceable(24) %44, i64 24, i1 false), !tbaa.struct !21
  %indvars.iv.next = add nuw nsw i64 %indvars.iv, 1
  %50 = load i32, ptr %7, align 8, !tbaa !14
  %51 = sext i32 %50 to i64
  %52 = icmp slt i64 %indvars.iv.next, %51
  br i1 %52, label %42, label %._crit_edge, !llvm.loop !26
}